; Function Attrs: mustprogress uwtable
define dso_local noundef i32 @_Z14lua_tointegerxP9lua_StateiPi(ptr noundef readonly captures(none) %0, i32 noundef %1, ptr noundef writeonly %2) local_unnamed_addr #3 {
  %4 = alloca %struct.lua_TValue, align 8
  call void @llvm.lifetime.start.p0(i64 16, ptr nonnull %4) #19
  %5 = icmp sgt i32 %1, 0
  br i1 %5, label %6, label %14

6:                                                ; preds = %3
  %7 = getelementptr inbounds nuw i8, ptr %0, i64 16
  %8 = load ptr, ptr %7, align 8, !tbaa !4
  %9 = zext nneg i32 %1 to i64
  %10 = getelementptr %struct.lua_TValue, ptr %8, i64 %9
  %11 = getelementptr i8, ptr %10, i64 -16
  %12 = getelementptr inbounds nuw i8, ptr %0, i64 8
  %13 = load ptr, ptr %12, align 8, !tbaa !19
  %.not.i = icmp ult ptr %11, %13
  %.luaO_nilobject_.i = select i1 %.not.i, ptr %11, ptr @luaO_nilobject_
  br label %_ZL10index2addrP9lua_Statei.exit

14:                                               ; preds = %3
  %15 = icmp sgt i32 %1, -10000
  br i1 %15, label %16, label %21

16:                                               ; preds = %14
  %17 = getelementptr inbounds nuw i8, ptr %0, i64 8
  %18 = load ptr, ptr %17, align 8, !tbaa !19
  %19 = sext i32 %1 to i64
  %20 = getelementptr inbounds %struct.lua_TValue, ptr %18, i64 %19
  br label %_ZL10index2addrP9lua_Statei.exit

21:                                               ; preds = %14
  %22 = tail call fastcc noundef ptr @_ZL11pseudo2addrP9lua_Statei(ptr noundef %0, i32 noundef %1)
  br label %_ZL10index2addrP9lua_Statei.exit

_ZL10index2addrP9lua_Statei.exit:                 ; preds = %6, %16, %21
  %.1.i = phi ptr [ %.luaO_nilobject_.i, %6 ], [ %20, %16 ], [ %22, %21 ]
  %23 = getelementptr inbounds nuw i8, ptr %.1.i, i64 12
  %24 = load i32, ptr %23, align 4, !tbaa !47
  %25 = icmp eq i32 %24, 3
  br i1 %25, label %28, label %26

26:                                               ; preds = %_ZL10index2addrP9lua_Statei.exit
  %27 = call noundef ptr @_Z13luaV_tonumberPK10lua_TValuePS_(ptr noundef nonnull %.1.i, ptr noundef nonnull %4)
  %.not = icmp eq ptr %27, null
  br i1 %.not, label %31, label %28

28:                                               ; preds = %26, %_ZL10index2addrP9lua_Statei.exit
  %.011 = phi ptr [ %.1.i, %_ZL10index2addrP9lua_Statei.exit ], [ %27, %26 ]
  %29 = load double, ptr %.011, align 8, !tbaa !21
  %30 = fptosi double %29 to i32
  %.not15 = icmp eq ptr %2, null
  br i1 %.not15, label %32, label %.sink.split

31:                                               ; preds = %26
  %.not14 = icmp eq ptr %2, null
  br i1 %.not14, label %32, label %.sink.split

.sink.split:                                      ; preds = %31, %28
  %.sink = phi i32 [ 1, %28 ], [ 0, %31 ]
  %.0.ph = phi i32 [ %30, %28 ], [ 0, %31 ]
  store i32 %.sink, ptr %2, align 4, !tbaa !22
  br label %32

32:                                               ; preds = %.sink.split, %31, %28
  %.0 = phi i32 [ %30, %28 ], [ 0, %31 ], [ %.0.ph, %.sink.split ]
  call void @llvm.lifetime.end.p0(i64 16, ptr nonnull %4) #19
  ret i32 %.0
}